target datalayout = "e-m:e-p270:32:32-p271:32:32-p272:64:64-i64:64-i128:128-f80:128-n8:16:32:64-S128"
target triple = "x86_64-unknown-linux-gnu"

@.str.3 = private unnamed_addr constant [3 x i8] c"as\00", align 1
@.str.4 = private unnamed_addr constant [2 x i8] c"(\00", align 1
@.str.5 = private unnamed_addr constant [2 x i8] c")\00", align 1

; Function Attrs: mustprogress uwtable
define hidden noundef ptr @_ZN19smt2_pp_environment5pp_asEP3appP4sort(ptr noundef nonnull align 8 dereferenceable(56) %this, ptr noundef %fname, ptr noundef %s) #4 align 2 {
entry:
  %this.addr = alloca ptr, align 8
  %fname.addr = alloca ptr, align 8
  %s.addr = alloca ptr, align 8
  %buf = alloca [2 x ptr], align 16
  %ref.tmp = alloca ptr, align 8
  %ref.tmp5 = alloca ptr, align 8
  store ptr %this, ptr %this.addr, align 8
  store ptr %fname, ptr %fname.addr, align 8
  store ptr %s, ptr %s.addr, align 8
  %this1 = load ptr, ptr %this.addr, align 8
  %arrayinit.begin = getelementptr inbounds [2 x ptr], ptr %buf, i64 0, i64 0
  %0 = load ptr, ptr %fname.addr, align 8
  store ptr %0, ptr %arrayinit.begin, align 8
  %arrayinit.element = getelementptr inbounds ptr, ptr %arrayinit.begin, i64 1
  %1 = load ptr, ptr %s.addr, align 8
  %vtable = load ptr, ptr %this1, align 8
  %vfn = getelementptr inbounds ptr, ptr %vtable, i64 17
  %2 = load ptr, ptr %vfn, align 8
  %call = call noundef ptr %2(ptr noundef nonnull align 8 dereferenceable(56) %this1, ptr noundef %1)
  store ptr %call, ptr %arrayinit.element, align 8
  %vtable2 = load ptr, ptr %this1, align 8
  %vfn3 = getelementptr inbounds ptr, ptr %vtable2, i64 2
  %3 = load ptr, ptr %vfn3, align 8
  %call4 = call noundef nonnull align 8 dereferenceable(976) ptr %3(ptr noundef nonnull align 8 dereferenceable(56) %this1)
  %arraydecay = getelementptr inbounds [2 x ptr], ptr %buf, i64 0, i64 0
  store ptr %arraydecay, ptr %ref.tmp, align 8
  %arraydecay6 = getelementptr inbounds [2 x ptr], ptr %buf, i64 0, i64 0
  %add.ptr = getelementptr inbounds ptr, ptr %arraydecay6, i64 2
  store ptr %add.ptr, ptr %ref.tmp5, align 8
  %call7 = call noundef ptr @_ZN9format_ns7mk_seq1IPP3appNS_3f2fEEES2_R11ast_managerRKT_S9_T0_PKcSC_SC_(ptr noundef nonnull align 8 dereferenceable(976) %call4, ptr noundef nonnull align 8 dereferenceable(8) %ref.tmp, ptr noundef nonnull align 8 dereferenceable(8) %ref.tmp5, ptr noundef @.str.3, ptr noundef @.str.4, ptr noundef @.str.5)
  ret ptr %call7
}