; Function Attrs: mustprogress uwtable
define hidden noundef ptr @_ZN19smt2_pp_environment5pp_asEP3appP4sort(ptr noundef nonnull align 8 dereferenceable(56) %this, ptr noundef %fname, ptr noundef %s) local_unnamed_addr #3 align 2 {
entry:
  %buf = alloca [2 x ptr], align 16
  %ref.tmp = alloca ptr, align 8
  %ref.tmp5 = alloca ptr, align 8
  store ptr %fname, ptr %buf, align 16
  %arrayinit.element = getelementptr inbounds i8, ptr %buf, i64 8
  %vtable = load ptr, ptr %this, align 8
  %vfn = getelementptr inbounds i8, ptr %vtable, i64 136
  %0 = load ptr, ptr %vfn, align 8
  %call = tail call noundef ptr %0(ptr noundef nonnull align 8 dereferenceable(56) %this, ptr noundef %s)
  store ptr %call, ptr %arrayinit.element, align 8
  %vtable2 = load ptr, ptr %this, align 8
  %vfn3 = getelementptr inbounds i8, ptr %vtable2, i64 16
  %1 = load ptr, ptr %vfn3, align 8
  %call4 = tail call noundef nonnull align 8 dereferenceable(976) ptr %1(ptr noundef nonnull align 8 dereferenceable(56) %this)
  store ptr %buf, ptr %ref.tmp, align 8
  %add.ptr = getelementptr inbounds i8, ptr %buf, i64 16
  store ptr %add.ptr, ptr %ref.tmp5, align 8
  %call7 = call noundef ptr @_ZN9format_ns7mk_seq1IPP3appNS_3f2fEEES2_R11ast_managerRKT_S9_T0_PKcSC_SC_(ptr noundef nonnull align 8 dereferenceable(976) %call4, ptr noundef nonnull align 8 dereferenceable(8) %ref.tmp, ptr noundef nonnull align 8 dereferenceable(8) %ref.tmp5, ptr noundef nonnull @.str.3, ptr noundef nonnull @.str.4, ptr noundef nonnull @.str.5)
  ret ptr %call7
}